; ModuleID = '13/1737.c'
source_filename = "13/1737.c"
target datalayout = "e-m:e-p270:32:32-p271:32:32-p272:64:64-i64:64-f80:128-n8:16:32:64-S128"
target triple = "x86_64-pc-linux-gnu"

@.str = private unnamed_addr constant [3 x i8] c"%d\00", align 1
@.str.1 = private unnamed_addr constant [4 x i8] c" %d\00", align 1

; Function Attrs: noinline nounwind uwtable
define dso_local i32 @main() #0 {
  %1 = alloca i32, align 4
  %2 = alloca i32, align 4
  %3 = alloca i32, align 4
  %4 = alloca i32, align 4
  %5 = alloca i32, align 4
  %6 = alloca i32, align 4
  %7 = alloca i8*, align 8
  %8 = alloca i64, align 8
  %9 = alloca i64, align 8
  store i32 0, i32* %1, align 4
  store i32 0, i32* %5, align 4
  store i32 0, i32* %6, align 4
  %10 = call i32 (i8*, ...) @__isoc99_scanf(i8* getelementptr inbounds ([3 x i8], [3 x i8]* @.str, i64 0, i64 0), i32* %2)
  %11 = load i32, i32* %2, align 4
  %12 = zext i32 %11 to i64
  %13 = call i8* @llvm.stacksave()
  store i8* %13, i8** %7, align 8
  %14 = alloca i32, i64 %12, align 16
  store i64 %12, i64* %8, align 8
  %15 = load i32, i32* %2, align 4
  %16 = zext i32 %15 to i64
  %17 = alloca i32, i64 %16, align 16
  store i64 %16, i64* %9, align 8
  store i32 1, i32* %3, align 4
  br label %18

18:                                               ; preds = %65, %0
  %19 = load i32, i32* %3, align 4
  %20 = load i32, i32* %2, align 4
  %21 = icmp sle i32 %19, %20
  br i1 %21, label %22, label %68

22:                                               ; preds = %18
  %23 = load i32, i32* %3, align 4
  %24 = sub nsw i32 %23, 1
  %25 = sext i32 %24 to i64
  %26 = getelementptr inbounds i32, i32* %14, i64 %25
  %27 = call i32 (i8*, ...) @__isoc99_scanf(i8* getelementptr inbounds ([3 x i8], [3 x i8]* @.str, i64 0, i64 0), i32* %26)
  store i32 0, i32* %4, align 4
  br label %28

28:                                               ; preds = %46, %22
  %29 = load i32, i32* %4, align 4
  %30 = load i32, i32* %3, align 4
  %31 = sub nsw i32 %30, 2
  %32 = icmp sle i32 %29, %31
  br i1 %32, label %33, label %49

33:                                               ; preds = %28
  %34 = load i32, i32* %4, align 4
  %35 = sext i32 %34 to i64
  %36 = getelementptr inbounds i32, i32* %14, i64 %35
  %37 = load i32, i32* %36, align 4
  %38 = load i32, i32* %3, align 4
  %39 = sub nsw i32 %38, 1
  %40 = sext i32 %39 to i64
  %41 = getelementptr inbounds i32, i32* %14, i64 %40
  %42 = load i32, i32* %41, align 4
  %43 = icmp eq i32 %37, %42
  br i1 %43, label %44, label %45

44:                                               ; preds = %33
  store i32 1, i32* %6, align 4
  br label %49

45:                                               ; preds = %33
  br label %46

46:                                               ; preds = %45
  %47 = load i32, i32* %4, align 4
  %48 = add nsw i32 %47, 1
  store i32 %48, i32* %4, align 4
  br label %28

49:                                               ; preds = %44, %28
  %50 = load i32, i32* %6, align 4
  %51 = icmp eq i32 %50, 0
  br i1 %51, label %52, label %63

52:                                               ; preds = %49
  %53 = load i32, i32* %3, align 4
  %54 = sub nsw i32 %53, 1
  %55 = sext i32 %54 to i64
  %56 = getelementptr inbounds i32, i32* %14, i64 %55
  %57 = load i32, i32* %56, align 4
  %58 = load i32, i32* %5, align 4
  %59 = sext i32 %58 to i64
  %60 = getelementptr inbounds i32, i32* %17, i64 %59
  store i32 %57, i32* %60, align 4
  %61 = load i32, i32* %5, align 4
  %62 = add nsw i32 %61, 1
  store i32 %62, i32* %5, align 4
  br label %64

63:                                               ; preds = %49
  store i32 0, i32* %6, align 4
  br label %64

64:                                               ; preds = %63, %52
  br label %65

65:                                               ; preds = %64
  %66 = load i32, i32* %3, align 4
  %67 = add nsw i32 %66, 1
  store i32 %67, i32* %3, align 4
  br label %18

68:                                               ; preds = %18
  %69 = getelementptr inbounds i32, i32* %17, i64 0
  %70 = load i32, i32* %69, align 16
  %71 = call i32 (i8*, ...) @printf(i8* getelementptr inbounds ([3 x i8], [3 x i8]* @.str, i64 0, i64 0), i32 %70)
  store i32 2, i32* %3, align 4
  br label %72

72:                                               ; preds = %83, %68
  %73 = load i32, i32* %3, align 4
  %74 = load i32, i32* %5, align 4
  %75 = icmp sle i32 %73, %74
  br i1 %75, label %76, label %86

76:                                               ; preds = %72
  %77 = load i32, i32* %3, align 4
  %78 = sub nsw i32 %77, 1
  %79 = sext i32 %78 to i64
  %80 = getelementptr inbounds i32, i32* %17, i64 %79
  %81 = load i32, i32* %80, align 4
  %82 = call i32 (i8*, ...) @printf(i8* getelementptr inbounds ([4 x i8], [4 x i8]* @.str.1, i64 0, i64 0), i32 %81)
  br label %83

83:                                               ; preds = %76
  %84 = load i32, i32* %3, align 4
  %85 = add nsw i32 %84, 1
  store i32 %85, i32* %3, align 4
  br label %72

86:                                               ; preds = %72
  %87 = load i8*, i8** %7, align 8
  call void @llvm.stackrestore(i8* %87)
  %88 = load i32, i32* %1, align 4
  ret i32 %88
}

declare dso_local i32 @__isoc99_scanf(i8*, ...) #1

; Function Attrs: nounwind
declare i8* @llvm.stacksave() #2

declare dso_local i32 @printf(i8*, ...) #1

; Function Attrs: nounwind
declare void @llvm.stackrestore(i8*) #2


!llvm.module.flags = !{!0}
!llvm.ident = !{!1}

!0 = !{i32 1, !"wchar_size", i32 4}
!1 = !{!"clang version 10.0.0-4ubuntu1 "}
