; ModuleID = 'source-C-CXX/12/1737.c'
source_filename = "source-C-CXX/12/1737.c"
target datalayout = "e-m:e-p270:32:32-p271:32:32-p272:64:64-i64:64-f80:128-n8:16:32:64-S128"
target triple = "x86_64-pc-linux-gnu"

@.str = private unnamed_addr constant [3 x i8] c"%d\00", align 1
@.str.1 = private unnamed_addr constant [4 x i8] c" %d\00", align 1

; Function Attrs: nofree nounwind sspstrong uwtable
define dso_local i32 @main() local_unnamed_addr #0 {
  %1 = alloca i32, align 4
  %2 = bitcast i32* %1 to i8*
  call void @llvm.lifetime.start.p0i8(i64 4, i8* nonnull %2) #4
  %3 = call i32 (i8*, ...) @__isoc99_scanf(i8* getelementptr inbounds ([3 x i8], [3 x i8]* @.str, i64 0, i64 0), i32* nonnull %1)
  %4 = load i32, i32* %1, align 4, !tbaa !5
  %5 = zext i32 %4 to i64
  %6 = call i8* @llvm.stacksave()
  %7 = alloca i32, i64 %5, align 16
  %8 = load i32, i32* %1, align 4, !tbaa !5
  %9 = zext i32 %8 to i64
  %10 = alloca i32, i64 %9, align 16
  %11 = icmp slt i32 %8, 1
  br i1 %11, label %12, label %14

12:                                               ; preds = %0
  %13 = call i32 (i8*, ...) @printf(i8* nonnull dereferenceable(1) getelementptr inbounds ([3 x i8], [3 x i8]* @.str, i64 0, i64 0), i32 undef)
  br label %57

14:                                               ; preds = %0, %35
  %15 = phi i64 [ %37, %35 ], [ 1, %0 ]
  %16 = phi i64 [ %41, %35 ], [ 0, %0 ]
  %17 = phi i32 [ %36, %35 ], [ 0, %0 ]
  %18 = add nsw i64 %15, -1
  %19 = getelementptr inbounds i32, i32* %7, i64 %18
  %20 = call i32 (i8*, ...) @__isoc99_scanf(i8* getelementptr inbounds ([3 x i8], [3 x i8]* @.str, i64 0, i64 0), i32* nonnull %19)
  %21 = icmp ult i64 %15, 2
  %22 = load i32, i32* %19, align 4, !tbaa !5
  br i1 %21, label %31, label %26

23:                                               ; preds = %26
  %24 = add nuw nsw i64 %27, 1
  %25 = icmp eq i64 %24, %16
  br i1 %25, label %31, label %26, !llvm.loop !9

26:                                               ; preds = %14, %23
  %27 = phi i64 [ %24, %23 ], [ 0, %14 ]
  %28 = getelementptr inbounds i32, i32* %7, i64 %27
  %29 = load i32, i32* %28, align 4, !tbaa !5
  %30 = icmp eq i32 %29, %22
  br i1 %30, label %35, label %23

31:                                               ; preds = %23, %14
  %32 = sext i32 %17 to i64
  %33 = getelementptr inbounds i32, i32* %10, i64 %32
  store i32 %22, i32* %33, align 4, !tbaa !5
  %34 = add nsw i32 %17, 1
  br label %35

35:                                               ; preds = %26, %31
  %36 = phi i32 [ %34, %31 ], [ %17, %26 ]
  %37 = add nuw nsw i64 %15, 1
  %38 = load i32, i32* %1, align 4, !tbaa !5
  %39 = sext i32 %38 to i64
  %40 = icmp slt i64 %15, %39
  %41 = add nuw nsw i64 %16, 1
  br i1 %40, label %14, label %42, !llvm.loop !11

42:                                               ; preds = %35
  %43 = load i32, i32* %10, align 16, !tbaa !5
  %44 = call i32 (i8*, ...) @printf(i8* nonnull dereferenceable(1) getelementptr inbounds ([3 x i8], [3 x i8]* @.str, i64 0, i64 0), i32 %43)
  %45 = icmp slt i32 %36, 2
  br i1 %45, label %57, label %46

46:                                               ; preds = %42
  %47 = add nuw i32 %36, 1
  %48 = zext i32 %47 to i64
  br label %49

49:                                               ; preds = %46, %49
  %50 = phi i64 [ 2, %46 ], [ %55, %49 ]
  %51 = add nsw i64 %50, -1
  %52 = getelementptr inbounds i32, i32* %10, i64 %51
  %53 = load i32, i32* %52, align 4, !tbaa !5
  %54 = call i32 (i8*, ...) @printf(i8* nonnull dereferenceable(1) getelementptr inbounds ([4 x i8], [4 x i8]* @.str.1, i64 0, i64 0), i32 %53)
  %55 = add nuw nsw i64 %50, 1
  %56 = icmp eq i64 %55, %48
  br i1 %56, label %57, label %49, !llvm.loop !12

57:                                               ; preds = %49, %12, %42
  call void @llvm.stackrestore(i8* %6)
  call void @llvm.lifetime.end.p0i8(i64 4, i8* nonnull %2) #4
  ret i32 0
}

; Function Attrs: argmemonly mustprogress nofree nosync nounwind willreturn
declare void @llvm.lifetime.start.p0i8(i64 immarg, i8* nocapture) #1

; Function Attrs: nofree nounwind
declare noundef i32 @__isoc99_scanf(i8* nocapture noundef readonly, ...) local_unnamed_addr #2

; Function Attrs: mustprogress nofree nosync nounwind willreturn
declare i8* @llvm.stacksave() #3

; Function Attrs: nofree nounwind
declare noundef i32 @printf(i8* nocapture noundef readonly, ...) local_unnamed_addr #2

; Function Attrs: mustprogress nofree nosync nounwind willreturn
declare void @llvm.stackrestore(i8*) #3

; Function Attrs: argmemonly mustprogress nofree nosync nounwind willreturn
declare void @llvm.lifetime.end.p0i8(i64 immarg, i8* nocapture) #1


!llvm.module.flags = !{!0, !1, !2, !3}
!llvm.ident = !{!4}

!0 = !{i32 1, !"wchar_size", i32 4}
!1 = !{i32 7, !"PIC Level", i32 2}
!2 = !{i32 7, !"PIE Level", i32 2}
!3 = !{i32 7, !"uwtable", i32 1}
!4 = !{!"clang version 13.0.0"}
!5 = !{!6, !6, i64 0}
!6 = !{!"int", !7, i64 0}
!7 = !{!"omnipotent char", !8, i64 0}
!8 = !{!"Simple C/C++ TBAA"}
!9 = distinct !{!9, !10}
!10 = !{!"llvm.loop.mustprogress"}
!11 = distinct !{!11, !10}
!12 = distinct !{!12, !10}
